(dp1
S'failed'
p2
(lp3
sS'source_names'
p4
(lp5
S'ocgis/test/'
p6
asS'ids'
p7
(dp8
I1
(S'/home/local/WX/ben.koziol/Dropbox/nesii/project/ocg/git/ocgis/src/ocgis/test/make_test_data_subset.py'
S'ocgis.test.make_test_data_subset'
p9
S'test_subset_years_two_years'
tp10
sI2
(S'/home/local/WX/ben.koziol/Dropbox/nesii/project/ocg/git/ocgis/src/ocgis/test/make_test_data_subset.py'
g9
S'test_subset_years_one_year'
tp11
sI3
(S'/home/local/WX/ben.koziol/Dropbox/nesii/project/ocg/git/ocgis/src/ocgis/test/test_360.py'
S'ocgis.test.test_360'
p12
S'Test360.test_high_res'
tp13
sI4
(S'/home/local/WX/ben.koziol/Dropbox/nesii/project/ocg/git/ocgis/src/ocgis/test/test_360.py'
g12
S'Test360.test_low_res'
tp14
sI5
(S'/home/local/WX/ben.koziol/Dropbox/nesii/project/ocg/git/ocgis/src/ocgis/test/test_ShpCabinet.py'
S'ocgis.test.test_ShpCabinet'
p15
S'Test.test_bad_path'
tp16
sI6
(S'/home/local/WX/ben.koziol/Dropbox/nesii/project/ocg/git/ocgis/src/ocgis/test/test_ShpCabinet.py'
g15
S'Test.test_get_keys'
tp17
sI7
(S'/home/local/WX/ben.koziol/Dropbox/nesii/project/ocg/git/ocgis/src/ocgis/test/test_ShpCabinet.py'
g15
S'Test.test_huc_loading'
tp18
sI8
(S'/home/local/WX/ben.koziol/Dropbox/nesii/project/ocg/git/ocgis/src/ocgis/test/test_ShpCabinet.py'
g15
S'Test.test_load_all'
tp19
sI9
(S'/home/local/WX/ben.koziol/Dropbox/nesii/project/ocg/git/ocgis/src/ocgis/test/test_ShpCabinet.py'
g15
S'Test.test_none_path'
tp20
sI10
(S'/home/local/WX/ben.koziol/Dropbox/nesii/project/ocg/git/ocgis/src/ocgis/test/test_ShpCabinet.py'
g15
S'Test.test_shapefiles_not_in_folders'
tp21
sI11
(S'/home/local/WX/ben.koziol/Dropbox/nesii/project/ocg/git/ocgis/src/ocgis/test/test_ShpCabinet.py'
g15
S'Test.test_sql_subset'
tp22
sI12
(S'/home/local/WX/ben.koziol/Dropbox/nesii/project/ocg/git/ocgis/src/ocgis/test/test_api_parms.py'
S'ocgis.test.test_api_parms'
p23
S'Test.test_calc'
tp24
sI13
(S'/home/local/WX/ben.koziol/Dropbox/nesii/project/ocg/git/ocgis/src/ocgis/test/test_api_parms.py'
g23
S'Test.test_calc_grouping'
tp25
sI14
(S'/home/local/WX/ben.koziol/Dropbox/nesii/project/ocg/git/ocgis/src/ocgis/test/test_api_parms.py'
g23
S'Test.test_dataset'
tp26
sI15
(S'/home/local/WX/ben.koziol/Dropbox/nesii/project/ocg/git/ocgis/src/ocgis/test/test_api_parms.py'
g23
S'Test.test_dir_output'
tp27
sI16
(S'/home/local/WX/ben.koziol/Dropbox/nesii/project/ocg/git/ocgis/src/ocgis/test/test_api_parms.py'
g23
S'Test.test_geom'
tp28
sI17
(S'/home/local/WX/ben.koziol/Dropbox/nesii/project/ocg/git/ocgis/src/ocgis/test/test_api_parms.py'
g23
S'Test.test_output_format'
tp29
sI18
(S'/home/local/WX/ben.koziol/Dropbox/nesii/project/ocg/git/ocgis/src/ocgis/test/test_api_parms.py'
g23
S'Test.test_prefix'
tp30
sI19
(S'/home/local/WX/ben.koziol/Dropbox/nesii/project/ocg/git/ocgis/src/ocgis/test/test_api_parms.py'
g23
S'Test.test_select_ugid'
tp31
sI20
(S'/home/local/WX/ben.koziol/Dropbox/nesii/project/ocg/git/ocgis/src/ocgis/test/test_api_parms.py'
g23
S'Test.test_slice'
tp32
sI21
(S'/home/local/WX/ben.koziol/Dropbox/nesii/project/ocg/git/ocgis/src/ocgis/test/test_api_parms.py'
g23
S'Test.test_snippet'
tp33
sI22
(S'/home/local/WX/ben.koziol/Dropbox/nesii/project/ocg/git/ocgis/src/ocgis/test/test_api_parms.py'
g23
S'Test.test_spatial_operation'
tp34
sI23
(S'/home/local/WX/ben.koziol/Dropbox/nesii/project/ocg/git/ocgis/src/ocgis/test/test_base.py'
S'ocgis.test.test_base'
p35
S'Test.test_copy_files'
tp36
sI24
(S'/home/local/WX/ben.koziol/Dropbox/nesii/project/ocg/git/ocgis/src/ocgis/test/test_base.py'
g35
S'Test.test_data_download'
tp37
sI25
(S'/home/local/WX/ben.koziol/Dropbox/nesii/project/ocg/git/ocgis/src/ocgis/test/test_base.py'
g35
S'Test.test_entirely_bad_location'
tp38
sI26
(S'/home/local/WX/ben.koziol/Dropbox/nesii/project/ocg/git/ocgis/src/ocgis/test/test_base.py'
g35
S'Test.test_multifile'
tp39
sI27
(S'/home/local/WX/ben.koziol/Dropbox/nesii/project/ocg/git/ocgis/src/ocgis/test/test_base.py'
g35
S'Test.test_multifile_data_download'
tp40
sI28
(S'/home/local/WX/ben.koziol/Dropbox/nesii/project/ocg/git/ocgis/src/ocgis/test/test_calc.py'
S'ocgis.test.test_calc'
p41
S'Test.test_Mean'
tp42
sI29
(S'/home/local/WX/ben.koziol/Dropbox/nesii/project/ocg/git/ocgis/src/ocgis/test/test_calc.py'
g41
S'Test.test_computational_nc_output'
tp43
sI30
(S'/home/local/WX/ben.koziol/Dropbox/nesii/project/ocg/git/ocgis/src/ocgis/test/test_calc.py'
g41
S'Test.test_date_groups'
tp44
sI31
(S'/home/local/WX/ben.koziol/Dropbox/nesii/project/ocg/git/ocgis/src/ocgis/test/test_calc.py'
g41
S'Test.test_duration'
tp45
sI32
(S'/home/local/WX/ben.koziol/Dropbox/nesii/project/ocg/git/ocgis/src/ocgis/test/test_calc.py'
g41
S'Test.test_frequency_duration'
tp46
sI33
(S'/home/local/WX/ben.koziol/Dropbox/nesii/project/ocg/git/ocgis/src/ocgis/test/test_calc.py'
g41
S'Test.test_frequency_duration_real_data'
tp47
sI34
(S'/home/local/WX/ben.koziol/Dropbox/nesii/project/ocg/git/ocgis/src/ocgis/test/test_calc.py'
g41
S'Test.test_frequency_percentiles'
tp48
sI35
(S'/home/local/WX/ben.koziol/Dropbox/nesii/project/ocg/git/ocgis/src/ocgis/test/test_calc.py'
g41
S'Test.test_heat_index'
tp49
sI36
(S'/home/local/WX/ben.koziol/Dropbox/nesii/project/ocg/git/ocgis/src/ocgis/test/test_calc.py'
g41
S'Test.test_time_region'
tp50
sI37
(S'/home/local/WX/ben.koziol/Dropbox/nesii/project/ocg/git/ocgis/src/ocgis/test/test_calc.py'
g41
S'TestOcgCalculationEngine.test_agg_raw'
tp51
sI38
(S'/home/local/WX/ben.koziol/Dropbox/nesii/project/ocg/git/ocgis/src/ocgis/test/test_cf.py'
S'ocgis.test.test_cf'
p52
S'Test.test_climatology'
tp53
sI39
(S'/home/local/WX/ben.koziol/Dropbox/nesii/project/ocg/git/ocgis/src/ocgis/test/test_cf.py'
g52
S'Test.test_missing_bounds'
tp54
sI40
(S'/home/local/WX/ben.koziol/Dropbox/nesii/project/ocg/git/ocgis/src/ocgis/test/test_collection.py'
S'ocgis.test.test_collection'
S'TestRawCollection.test_date_parts'
tp55
sI41
(S'/home/local/WX/ben.koziol/Dropbox/nesii/project/ocg/git/ocgis/src/ocgis/test/test_conversion.py'
S'ocgis.test.test_conversion'
p56
S'Test.test_csv_plus'
tp57
sI42
(S'/home/local/WX/ben.koziol/Dropbox/nesii/project/ocg/git/ocgis/src/ocgis/test/test_conversion.py'
g56
S'Test.test_csv_plus_custom_headers'
tp58
sI43
(S'/home/local/WX/ben.koziol/Dropbox/nesii/project/ocg/git/ocgis/src/ocgis/test/test_conversion.py'
g56
S'Test.test_meta'
tp59
sI44
(S'/home/local/WX/ben.koziol/Dropbox/nesii/project/ocg/git/ocgis/src/ocgis/test/test_conversion.py'
g56
S'Test.test_meta_with_source'
tp60
sI45
(S'/home/local/WX/ben.koziol/Dropbox/nesii/project/ocg/git/ocgis/src/ocgis/test/test_conversion.py'
g56
S'Test.test_nc_projection_writing'
tp61
sI46
(S'/home/local/WX/ben.koziol/Dropbox/nesii/project/ocg/git/ocgis/src/ocgis/test/test_conversion.py'
g56
S'Test.test_shp_custom_headers'
tp62
sI47
(S'/home/local/WX/ben.koziol/Dropbox/nesii/project/ocg/git/ocgis/src/ocgis/test/test_conversion.py'
g56
S'Test.test_shp_with_frequency_duration'
tp63
sI48
(S'/home/local/WX/ben.koziol/Dropbox/nesii/project/ocg/git/ocgis/src/ocgis/test/test_dataset.py'
S'ocgis.test.test_dataset'
p64
S'TestGeometryDataset.test_iter'
tp65
sI49
(S'/home/local/WX/ben.koziol/Dropbox/nesii/project/ocg/git/ocgis/src/ocgis/test/test_dataset.py'
g64
S'TestGeometryDataset.test_load'
tp66
sI50
(S'/home/local/WX/ben.koziol/Dropbox/nesii/project/ocg/git/ocgis/src/ocgis/test/test_dataset.py'
g64
S'TestIteration.test_get_iter'
tp67
sI51
(S'/home/local/WX/ben.koziol/Dropbox/nesii/project/ocg/git/ocgis/src/ocgis/test/test_dataset.py'
g64
S'TestNcDataset.test_abstraction_point'
tp68
sI52
(S'/home/local/WX/ben.koziol/Dropbox/nesii/project/ocg/git/ocgis/src/ocgis/test/test_dataset.py'
g64
S'TestNcDataset.test_aggregate'
tp69
sI53
(S'/home/local/WX/ben.koziol/Dropbox/nesii/project/ocg/git/ocgis/src/ocgis/test/test_dataset.py'
g64
S'TestNcDataset.test_initial_subset'
tp70
sI54
(S'/home/local/WX/ben.koziol/Dropbox/nesii/project/ocg/git/ocgis/src/ocgis/test/test_dataset.py'
g64
S'TestNcDataset.test_load'
tp71
sI55
(S'/home/local/WX/ben.koziol/Dropbox/nesii/project/ocg/git/ocgis/src/ocgis/test/test_dataset.py'
g64
S'TestNcDataset.test_masking'
tp72
sI56
(S'/home/local/WX/ben.koziol/Dropbox/nesii/project/ocg/git/ocgis/src/ocgis/test/test_dataset.py'
g64
S'TestNcDataset.test_project'
tp73
sI57
(S'/home/local/WX/ben.koziol/Dropbox/nesii/project/ocg/git/ocgis/src/ocgis/test/test_dataset.py'
g64
S'TestNcDataset.test_row_dimension'
tp74
sI58
(S'/home/local/WX/ben.koziol/Dropbox/nesii/project/ocg/git/ocgis/src/ocgis/test/test_dataset.py'
g64
S'TestNcDataset.test_slice'
tp75
sI59
(S'/home/local/WX/ben.koziol/Dropbox/nesii/project/ocg/git/ocgis/src/ocgis/test/test_dataset.py'
g64
S'TestNcDataset.test_spatial_dimension'
tp76
sI60
(S'/home/local/WX/ben.koziol/Dropbox/nesii/project/ocg/git/ocgis/src/ocgis/test/test_dataset.py'
g64
S'TestNcDataset.test_temporal_group'
tp77
sI61
(S'/home/local/WX/ben.koziol/Dropbox/nesii/project/ocg/git/ocgis/src/ocgis/test/test_dataset.py'
g64
S'TestShpDataset.test_filter'
tp78
sI62
(S'/home/local/WX/ben.koziol/Dropbox/nesii/project/ocg/git/ocgis/src/ocgis/test/test_dataset.py'
g64
S'TestShpDataset.test_load'
tp79
sI63
(S'/home/local/WX/ben.koziol/Dropbox/nesii/project/ocg/git/ocgis/src/ocgis/test/test_dataset.py'
g64
S'TestShpDataset.test_point_load'
tp80
sI64
(S'/home/local/WX/ben.koziol/Dropbox/nesii/project/ocg/git/ocgis/src/ocgis/test/test_dataset.py'
g64
S'TestShpDataset.test_write'
tp81
sI65
(S'/home/local/WX/ben.koziol/Dropbox/nesii/project/ocg/git/ocgis/src/ocgis/test/test_environment.py'
S'ocgis.test.test_environment'
p82
S'Test.test_env_overload'
tp83
sI66
(S'/home/local/WX/ben.koziol/Dropbox/nesii/project/ocg/git/ocgis/src/ocgis/test/test_environment.py'
g82
S'Test.test_reference_projection'
tp84
sI67
(S'/home/local/WX/ben.koziol/Dropbox/nesii/project/ocg/git/ocgis/src/ocgis/test/test_environment.py'
g82
S'Test.test_simple'
tp85
sI68
(S'/home/local/WX/ben.koziol/Dropbox/nesii/project/ocg/git/ocgis/src/ocgis/test/test_environment.py'
g82
S'Test.test_str'
tp86
sI69
(S'/home/local/WX/ben.koziol/Dropbox/nesii/project/ocg/git/ocgis/src/ocgis/test/test_justify.py'
S'ocgis.test.test_justify'
p87
S'Test.test_justify_long_word'
tp88
sI70
(S'/home/local/WX/ben.koziol/Dropbox/nesii/project/ocg/git/ocgis/src/ocgis/test/test_justify.py'
g87
S'Test.test_justify_row'
tp89
sI71
(S'/home/local/WX/ben.koziol/Dropbox/nesii/project/ocg/git/ocgis/src/ocgis/test/test_justify.py'
g87
S'Test.test_justify_row_without_words'
tp90
sI72
(S'/home/local/WX/ben.koziol/Dropbox/nesii/project/ocg/git/ocgis/src/ocgis/test/test_large_array.py'
S'ocgis.test.test_large_array'
p91
S'Test.test_compute'
tp92
sI73
(S'/home/local/WX/ben.koziol/Dropbox/nesii/project/ocg/git/ocgis/src/ocgis/test/test_large_array.py'
g91
S'Test.test_tile_get_tile_schema'
tp93
sI74
(S'/home/local/WX/ben.koziol/Dropbox/nesii/project/ocg/git/ocgis/src/ocgis/test/test_large_array.py'
g91
S'Test.test_tile_sum'
tp94
sI75
(S'/home/local/WX/ben.koziol/Dropbox/nesii/project/ocg/git/ocgis/src/ocgis/test/test_logging_ocgis.py'
S'ocgis.test.test_logging_ocgis'
p95
S'Test.test_combinations'
tp96
sI76
(S'/home/local/WX/ben.koziol/Dropbox/nesii/project/ocg/git/ocgis/src/ocgis/test/test_logging_ocgis.py'
g95
S'Test.test_exc'
tp97
sI77
(S'/home/local/WX/ben.koziol/Dropbox/nesii/project/ocg/git/ocgis/src/ocgis/test/test_logging_ocgis.py'
g95
S'Test.test_simple'
tp98
sI78
(S'/home/local/WX/ben.koziol/Dropbox/nesii/project/ocg/git/ocgis/src/ocgis/test/test_logging_ocgis.py'
g95
S'Test.test_writing'
tp99
sI79
(S'/home/local/WX/ben.koziol/Dropbox/nesii/project/ocg/git/ocgis/src/ocgis/test/test_multiple_datasets.py'
S'ocgis.test.test_multiple_datasets'
p100
S'Test.test_aggregate_clip'
tp101
sI80
(S'/home/local/WX/ben.koziol/Dropbox/nesii/project/ocg/git/ocgis/src/ocgis/test/test_multiple_datasets.py'
g100
S'Test.test_calculation'
tp102
sI81
(S'/home/local/WX/ben.koziol/Dropbox/nesii/project/ocg/git/ocgis/src/ocgis/test/test_multiple_datasets.py'
g100
S'Test.test_consolidating_projections'
tp103
sI82
(S'/home/local/WX/ben.koziol/Dropbox/nesii/project/ocg/git/ocgis/src/ocgis/test/test_multiple_datasets.py'
g100
S'Test.test_default'
tp104
sI83
(S'/home/local/WX/ben.koziol/Dropbox/nesii/project/ocg/git/ocgis/src/ocgis/test/test_multiple_datasets.py'
g100
S'Test.test_keyed'
tp105
sI84
(S'/home/local/WX/ben.koziol/Dropbox/nesii/project/ocg/git/ocgis/src/ocgis/test/test_multiple_datasets.py'
g100
S'Test.test_same_variable_name'
tp106
sI85
(S'/home/local/WX/ben.koziol/Dropbox/nesii/project/ocg/git/ocgis/src/ocgis/test/test_multiple_datasets.py'
g100
S'Test.test_vector_wrap'
tp107
sI86
(S'/home/local/WX/ben.koziol/Dropbox/nesii/project/ocg/git/ocgis/src/ocgis/test/test_ncmeta.py'
S'ocgis.test.test_ncmeta'
S'TestNcMeta.test_ncmeta'
tp108
sI87
(S'/home/local/WX/ben.koziol/Dropbox/nesii/project/ocg/git/ocgis/src/ocgis/test/test_operations.py'
S'ocgis.test.test_operations'
p109
S'Test.test_abstraction'
tp110
sI88
(S'/home/local/WX/ben.koziol/Dropbox/nesii/project/ocg/git/ocgis/src/ocgis/test/test_operations.py'
g109
S'Test.test_aggregate'
tp111
sI89
(S'/home/local/WX/ben.koziol/Dropbox/nesii/project/ocg/git/ocgis/src/ocgis/test/test_operations.py'
g109
S'Test.test_calc_grouping'
tp112
sI90
(S'/home/local/WX/ben.koziol/Dropbox/nesii/project/ocg/git/ocgis/src/ocgis/test/test_operations.py'
g109
S'Test.test_dataset'
tp113
sI91
(S'/home/local/WX/ben.koziol/Dropbox/nesii/project/ocg/git/ocgis/src/ocgis/test/test_operations.py'
g109
S'Test.test_geom'
tp114
sI92
(S'/home/local/WX/ben.koziol/Dropbox/nesii/project/ocg/git/ocgis/src/ocgis/test/test_operations.py'
g109
S'Test.test_geom_string'
tp115
sI93
(S'/home/local/WX/ben.koziol/Dropbox/nesii/project/ocg/git/ocgis/src/ocgis/test/test_operations.py'
g109
S'Test.test_get_meta'
tp116
sI94
(S'/home/local/WX/ben.koziol/Dropbox/nesii/project/ocg/git/ocgis/src/ocgis/test/test_operations.py'
g109
S'Test.test_headers'
tp117
sI95
(S'/home/local/WX/ben.koziol/Dropbox/nesii/project/ocg/git/ocgis/src/ocgis/test/test_operations.py'
g109
S'Test.test_null_parms'
tp118
sI96
(S'/home/local/WX/ben.koziol/Dropbox/nesii/project/ocg/git/ocgis/src/ocgis/test/test_operations.py'
g109
S'Test.test_repr'
tp119
sI97
(S'/home/local/WX/ben.koziol/Dropbox/nesii/project/ocg/git/ocgis/src/ocgis/test/test_operations.py'
g109
S'Test.test_spatial_operation'
tp120
sI98
(S'/home/local/WX/ben.koziol/Dropbox/nesii/project/ocg/git/ocgis/src/ocgis/test/test_operations.py'
g109
S'TestRequestDataset.test_RequestDataset'
tp121
sI99
(S'/home/local/WX/ben.koziol/Dropbox/nesii/project/ocg/git/ocgis/src/ocgis/test/test_operations.py'
g109
S'TestRequestDataset.test_RequestDatasetCollection'
tp122
sI100
(S'/home/local/WX/ben.koziol/Dropbox/nesii/project/ocg/git/ocgis/src/ocgis/test/test_operations.py'
g109
S'TestRequestDataset.test_RequestDataset_level_range'
tp123
sI101
(S'/home/local/WX/ben.koziol/Dropbox/nesii/project/ocg/git/ocgis/src/ocgis/test/test_operations.py'
g109
S'TestRequestDataset.test_RequestDataset_time_range'
tp124
sI102
(S'/home/local/WX/ben.koziol/Dropbox/nesii/project/ocg/git/ocgis/src/ocgis/test/test_operations.py'
g109
S'TestRequestDataset.test_env_dir_data'
tp125
sI103
(S'/home/local/WX/ben.koziol/Dropbox/nesii/project/ocg/git/ocgis/src/ocgis/test/test_operations.py'
g109
S'TestRequestDataset.test_inspect_as_dct'
tp126
sI104
(S'/home/local/WX/ben.koziol/Dropbox/nesii/project/ocg/git/ocgis/src/ocgis/test/test_operations.py'
g109
S'TestRequestDataset.test_inspect_method'
tp127
sI105
(S'/home/local/WX/ben.koziol/Dropbox/nesii/project/ocg/git/ocgis/src/ocgis/test/test_operations.py'
g109
S'TestRequestDataset.test_multiple_uris'
tp128
sI106
(S'/home/local/WX/ben.koziol/Dropbox/nesii/project/ocg/git/ocgis/src/ocgis/test/test_operations.py'
g109
S'TestRequestDataset.test_pickle'
tp129
sI107
(S'/home/local/WX/ben.koziol/Dropbox/nesii/project/ocg/git/ocgis/src/ocgis/test/test_operations.py'
g109
S'TestRequestDataset.test_time_region'
tp130
sI108
(S'/home/local/WX/ben.koziol/Dropbox/nesii/project/ocg/git/ocgis/src/ocgis/test/test_package.py'
S'ocgis.test.test_package'
S'Test.test_nc'
tp131
sI109
(S'/home/local/WX/ben.koziol/Dropbox/nesii/project/ocg/git/ocgis/src/ocgis/test/test_projection.py'
S'ocgis.test.test_projection'
p132
S'Test.test_WGS84'
tp133
sI110
(S'/home/local/WX/ben.koziol/Dropbox/nesii/project/ocg/git/ocgis/src/ocgis/test/test_projection.py'
g132
S'Test.test_daymet'
tp134
sI111
(S'/home/local/WX/ben.koziol/Dropbox/nesii/project/ocg/git/ocgis/src/ocgis/test/test_projection.py'
g132
S'Test.test_differing_projections'
tp135
sI112
(S'/home/local/WX/ben.koziol/Dropbox/nesii/project/ocg/git/ocgis/src/ocgis/test/test_projection.py'
g132
S'Test.test_get_projection'
tp136
sI113
(S'/home/local/WX/ben.koziol/Dropbox/nesii/project/ocg/git/ocgis/src/ocgis/test/test_projection.py'
g132
S'Test.test_lambert_conformal'
tp137
sI114
(S'/home/local/WX/ben.koziol/Dropbox/nesii/project/ocg/git/ocgis/src/ocgis/test/test_projection.py'
g132
S'Test.test_same_projection'
tp138
sI115
(S'/home/local/WX/ben.koziol/Dropbox/nesii/project/ocg/git/ocgis/src/ocgis/test/test_qed.py'
S'ocgis.test.test_qed'
p139
S'TestDynamicPercentiles.test_calculate'
tp140
sI116
(S'/home/local/WX/ben.koziol/Dropbox/nesii/project/ocg/git/ocgis/src/ocgis/test/test_qed.py'
g139
S'TestDynamicPercentiles.test_get_day_index'
tp141
sI117
(S'/home/local/WX/ben.koziol/Dropbox/nesii/project/ocg/git/ocgis/src/ocgis/test/test_qed.py'
g139
S'TestDynamicPercentiles.test_get_dynamic_index'
tp142
sI118
(S'/home/local/WX/ben.koziol/Dropbox/nesii/project/ocg/git/ocgis/src/ocgis/test/test_qed.py'
g139
S'TestDynamicPercentiles.test_get_geometries_with_percentiles'
tp143
sI119
(S'/home/local/WX/ben.koziol/Dropbox/nesii/project/ocg/git/ocgis/src/ocgis/test/test_qed.py'
g139
S'TestDynamicPercentiles.test_is_leap_year'
tp144
sI120
(S'/home/local/WX/ben.koziol/Dropbox/nesii/project/ocg/git/ocgis/src/ocgis/test/test_qed.py'
g139
S'TestSnowfallWaterEquivalent.test_calculate'
tp145
sI121
(S'/home/local/WX/ben.koziol/Dropbox/nesii/project/ocg/git/ocgis/src/ocgis/test/test_qed.py'
g139
S'TestSnowfallWaterEquivalent.test_calculate_compute'
tp146
sI122
(S'/home/local/WX/ben.koziol/Dropbox/nesii/project/ocg/git/ocgis/src/ocgis/test/test_qed.py'
g139
S'TestSnowfallWaterEquivalent.test_output_data'
tp147
sI123
(S'/home/local/WX/ben.koziol/Dropbox/nesii/project/ocg/git/ocgis/src/ocgis/test/test_real_data.py'
S'ocgis.test.test_real_data'
p148
S'Test.test_QED_2013'
tp149
sI124
(S'/home/local/WX/ben.koziol/Dropbox/nesii/project/ocg/git/ocgis/src/ocgis/test/test_real_data.py'
g148
S'Test.test_clip_aggregate'
tp150
sI125
(S'/home/local/WX/ben.koziol/Dropbox/nesii/project/ocg/git/ocgis/src/ocgis/test/test_real_data.py'
g148
S'Test.test_maurer_2010'
tp151
sI126
(S'/home/local/WX/ben.koziol/Dropbox/nesii/project/ocg/git/ocgis/src/ocgis/test/test_real_data.py'
g148
S'Test.test_maurer_concatenated_shp'
tp152
sI127
(S'/home/local/WX/ben.koziol/Dropbox/nesii/project/ocg/git/ocgis/src/ocgis/test/test_real_data.py'
g148
S'Test.test_maurer_concatenated_tasmax_region'
tp153
ss.